; Function Attrs: mustprogress nounwind uwtable
define void @_ZN6google8protobuf8compiler26CodeGeneratorResponse_FileD2Ev(ptr noundef nonnull align 8 dereferenceable(56) %this) unnamed_addr #7 align 2 personality ptr @__gxx_personality_v0 {
entry:
  %_internal_metadata_ = getelementptr inbounds i8, ptr %this, i64 8
  %0 = load i64, ptr %_internal_metadata_, align 8
  %and.i.i = and i64 %0, 1
  %tobool.i.not.i = icmp eq i64 %and.i.i, 0
  br i1 %tobool.i.not.i, label %invoke.cont, label %if.then.i

if.then.i:                                        ; preds = %entry
  invoke void @_ZN6google8protobuf8internal16InternalMetadata21DeleteOutOfLineHelperINS0_15UnknownFieldSetEEEvv(ptr noundef nonnull align 8 dereferenceable(8) %_internal_metadata_)
          to label %invoke.cont unwind label %terminate.lpad

invoke.cont:                                      ; preds = %entry, %if.then.i
  %name_.i = getelementptr inbounds i8, ptr %this, i64 24
  invoke void @_ZN6google8protobuf8internal14ArenaStringPtr7DestroyEv(ptr noundef nonnull align 8 dereferenceable(8) %name_.i)
          to label %.noexc1 unwind label %terminate.lpad

.noexc1:                                          ; preds = %invoke.cont
  %insertion_point_.i = getelementptr inbounds i8, ptr %this, i64 32
  invoke void @_ZN6google8protobuf8internal14ArenaStringPtr7DestroyEv(ptr noundef nonnull align 8 dereferenceable(8) %insertion_point_.i)
          to label %.noexc2 unwind label %terminate.lpad

.noexc2:                                          ; preds = %.noexc1
  %content_.i = getelementptr inbounds i8, ptr %this, i64 40
  invoke void @_ZN6google8protobuf8internal14ArenaStringPtr7DestroyEv(ptr noundef nonnull align 8 dereferenceable(8) %content_.i)
          to label %.noexc3 unwind label %terminate.lpad

.noexc3:                                          ; preds = %.noexc2
  %generated_code_info_.i = getelementptr inbounds i8, ptr %this, i64 48
  %1 = load ptr, ptr %generated_code_info_.i, align 8
  %isnull.i = icmp eq ptr %1, null
  br i1 %isnull.i, label %invoke.cont2, label %delete.notnull.i

delete.notnull.i:                                 ; preds = %.noexc3
  tail call void @_ZN6google8protobuf17GeneratedCodeInfoD1Ev(ptr noundef nonnull align 8 dereferenceable(48) %1) #18
  tail call void @_ZdlPv(ptr noundef nonnull %1) #19
  br label %invoke.cont2

invoke.cont2:                                     ; preds = %delete.notnull.i, %.noexc3
  ret void

terminate.lpad:                                   ; preds = %.noexc2, %.noexc1, %invoke.cont, %if.then.i
  %2 = landingpad { ptr, i32 }
          catch ptr null
  %3 = extractvalue { ptr, i32 } %2, 0
  tail call void @__clang_call_terminate(ptr %3) #17
  unreachable
}